target datalayout = "e-m:e-p270:32:32-p271:32:32-p272:64:64-i64:64-i128:128-f80:128-n8:16:32:64-S128"
target triple = "x86_64-pc-linux-gnu"

%class.ClassLoaderStatsVMOperation = type { %class.VM_Operation, ptr }
%class.VM_Operation = type { ptr, ptr }
%class.DCmd = type <{ ptr, ptr, i8, [7 x i8] }>

@_ZTV12VM_Operation = external unnamed_addr constant { [12 x ptr] }, align 8

; Function Attrs: mustprogress nounwind uwtable
define linkonce_odr hidden void @_ZN12VM_OperationC2Ev(ptr noundef nonnull align 8 dereferenceable(16) %0) unnamed_addr #1 comdat align 2 {
  %2 = alloca ptr, align 8
  store ptr %0, ptr %2, align 8
  %3 = load ptr, ptr %2, align 8
  store ptr getelementptr inbounds inrange(-16, 80) ({ [12 x ptr] }, ptr @_ZTV12VM_Operation, i32 0, i32 0, i32 2), ptr %3, align 8
  %4 = getelementptr inbounds %class.VM_Operation, ptr %3, i32 0, i32 1
  store ptr null, ptr %4, align 8
  ret void
}

; Function Attrs: mustprogress nounwind uwtable
define linkonce_odr hidden void @_ZN27ClassLoaderStatsVMOperationC2EP12outputStream(ptr noundef nonnull align 8 dereferenceable(24) %0, ptr noundef %1) unnamed_addr #1 comdat align 2 {
  %3 = alloca ptr, align 8
  %4 = alloca ptr, align 8
  store ptr %0, ptr %3, align 8
  store ptr %1, ptr %4, align 8
  %5 = load ptr, ptr %3, align 8
  call void @_ZN12VM_OperationC2Ev(ptr noundef nonnull align 8 dereferenceable(16) %5)
  store ptr getelementptr inbounds inrange(-16, 80) ({ [12 x ptr] }, ptr @_ZTV27ClassLoaderStatsVMOperation, i32 0, i32 0, i32 2), ptr %5, align 8
  %6 = getelementptr inbounds %class.ClassLoaderStatsVMOperation, ptr %5, i32 0, i32 1
  %7 = load ptr, ptr %4, align 8
  store ptr %7, ptr %6, align 8
  ret void
}

; Function Attrs: mustprogress nounwind uwtable
define linkonce_odr hidden noundef ptr @_ZNK4DCmd6outputEv(ptr noundef nonnull align 8 dereferenceable(17) %0) #1 comdat align 2 {
  %2 = alloca ptr, align 8
  store ptr %0, ptr %2, align 8
  %3 = load ptr, ptr %2, align 8
  %4 = getelementptr inbounds %class.DCmd, ptr %3, i32 0, i32 1
  %5 = load ptr, ptr %4, align 8
  ret ptr %5
}

; Function Attrs: mustprogress nounwind uwtable
define hidden void @_ZN20ClassLoaderStatsDCmd7executeE10DCmdSourceP10JavaThread(ptr noundef nonnull align 8 dereferenceable(17) %0, i32 noundef %1, ptr noundef %2) unnamed_addr #1 align 2 {
  %4 = alloca ptr, align 8
  %5 = alloca i32, align 4
  %6 = alloca ptr, align 8
  %7 = alloca %class.ClassLoaderStatsVMOperation, align 8
  store ptr %0, ptr %4, align 8
  store i32 %1, ptr %5, align 4
  store ptr %2, ptr %6, align 8
  %8 = load ptr, ptr %4, align 8
  %9 = call noundef ptr @_ZNK4DCmd6outputEv(ptr noundef nonnull align 8 dereferenceable(17) %8)
  call void @_ZN27ClassLoaderStatsVMOperationC2EP12outputStream(ptr noundef nonnull align 8 dereferenceable(24) %7, ptr noundef %9)
  call void @_ZN8VMThread7executeEP12VM_Operation(ptr noundef %7)
  ret void
}