; Function Attrs: mustprogress nounwind uwtable
define hidden void @_ZN20ClassLoaderStatsDCmd7executeE10DCmdSourceP10JavaThread(ptr nocapture noundef nonnull readonly align 8 dereferenceable(17) %0, i32 %1, ptr nocapture readnone %2) unnamed_addr #0 align 2 {
  %4 = alloca %class.ClassLoaderStatsVMOperation, align 8
  %5 = getelementptr inbounds i8, ptr %0, i64 8
  %6 = load ptr, ptr %5, align 8
  %7 = getelementptr inbounds i8, ptr %4, i64 8
  store ptr null, ptr %7, align 8
  store ptr getelementptr inbounds inrange(-16, 80) (i8, ptr @_ZTV27ClassLoaderStatsVMOperation, i64 16), ptr %4, align 8
  %8 = getelementptr inbounds i8, ptr %4, i64 16
  store ptr %6, ptr %8, align 8
  call void @_ZN8VMThread7executeEP12VM_Operation(ptr noundef nonnull %4) #7
  ret void
}